target datalayout = "e-m:e-p270:32:32-p271:32:32-p272:64:64-i64:64-i128:128-f80:128-n8:16:32:64-S128"
target triple = "x86_64-pc-linux-gnu"

%"class.gmx::GridAxis" = type <{ double, double, double, double, i32, i32, i8, [7 x i8] }>
%class.anon.12 = type { i8 }

@.str.2 = private unnamed_addr constant [137 x i8] c"generated/home/dtcxzyw/WorkSpace/Projects/compilers/llvm-opt-benchmark/bench/gromacs/gromacs/src/gromacs/applied_forces/awh/biasgrid.cpp\00", align 1
@.str.3 = private unnamed_addr constant [41 x i8] c"index >= 0 && index < numPointsInPeriod_\00", align 1
@.str.4 = private unnamed_addr constant [55 x i8] c"Index not in periodic interval 0 for AWH periodic axis\00", align 1
@"__PRETTY_FUNCTION__._ZZNK3gmx8GridAxis12nearestIndexEdENK3$_0clEv" = private unnamed_addr constant [80 x i8] c"auto gmx::GridAxis::nearestIndex(double)::(anonymous class)::operator()() const\00", align 1

; Function Attrs: mustprogress nounwind uwtable
define internal noundef double @_ZN3gmx12_GLOBAL__N_129centerPeriodicValueAroundZeroEdd(double noundef %0, double noundef %1) #1 {
  %3 = alloca double, align 8
  %4 = alloca double, align 8
  %5 = alloca double, align 8
  %6 = alloca double, align 8
  store double %0, ptr %3, align 8
  store double %1, ptr %4, align 8
  %7 = load double, ptr %4, align 8
  %8 = fmul double %7, 5.000000e-01
  store double %8, ptr %5, align 8
  %9 = load double, ptr %3, align 8
  store double %9, ptr %6, align 8
  %10 = load double, ptr %6, align 8
  %11 = load double, ptr %5, align 8
  %12 = fcmp oge double %10, %11
  br i1 %12, label %13, label %17

13:                                               ; preds = %2
  %14 = load double, ptr %4, align 8
  %15 = load double, ptr %6, align 8
  %16 = fsub double %15, %14
  store double %16, ptr %6, align 8
  br label %27

17:                                               ; preds = %2
  %18 = load double, ptr %6, align 8
  %19 = load double, ptr %5, align 8
  %20 = fneg double %19
  %21 = fcmp olt double %18, %20
  br i1 %21, label %22, label %26

22:                                               ; preds = %17
  %23 = load double, ptr %4, align 8
  %24 = load double, ptr %6, align 8
  %25 = fadd double %24, %23
  store double %25, ptr %6, align 8
  br label %26

26:                                               ; preds = %22, %17
  br label %27

27:                                               ; preds = %26, %13
  %28 = load double, ptr %6, align 8
  ret double %28
}

; Function Attrs: mustprogress nounwind uwtable
define internal noundef i32 @_ZN3gmx12_GLOBAL__N_117indexWithinPeriodEii(i32 noundef %0, i32 noundef %1) #1 {
  %3 = alloca i32, align 4
  %4 = alloca i32, align 4
  %5 = alloca i32, align 4
  store i32 %0, ptr %4, align 4
  store i32 %1, ptr %5, align 4
  %6 = load i32, ptr %5, align 4
  %7 = icmp eq i32 %6, 0
  br i1 %7, label %8, label %10

8:                                                ; preds = %2
  %9 = load i32, ptr %4, align 4
  store i32 %9, ptr %3, align 4
  br label %27

10:                                               ; preds = %2
  %11 = load i32, ptr %4, align 4
  %12 = load i32, ptr %5, align 4
  %13 = icmp sge i32 %11, %12
  br i1 %13, label %14, label %18

14:                                               ; preds = %10
  %15 = load i32, ptr %4, align 4
  %16 = load i32, ptr %5, align 4
  %17 = sub nsw i32 %15, %16
  store i32 %17, ptr %3, align 4
  br label %27

18:                                               ; preds = %10
  %19 = load i32, ptr %4, align 4
  %20 = icmp slt i32 %19, 0
  br i1 %20, label %21, label %25

21:                                               ; preds = %18
  %22 = load i32, ptr %4, align 4
  %23 = load i32, ptr %5, align 4
  %24 = add nsw i32 %22, %23
  store i32 %24, ptr %3, align 4
  br label %27

25:                                               ; preds = %18
  %26 = load i32, ptr %4, align 4
  store i32 %26, ptr %3, align 4
  br label %27

27:                                               ; preds = %25, %21, %14, %8
  %28 = load i32, ptr %3, align 4
  ret i32 %28
}

; Function Attrs: mustprogress nounwind uwtable
define linkonce_odr noundef i32 @_ZNK3gmx8GridAxis17numPointsInPeriodEv(ptr noundef nonnull align 8 dereferenceable(41) %0) #1 comdat align 2 {
  %2 = alloca ptr, align 8
  store ptr %0, ptr %2, align 8
  %3 = load ptr, ptr %2, align 8
  %4 = getelementptr inbounds %"class.gmx::GridAxis", ptr %3, i32 0, i32 5
  %5 = load i32, ptr %4, align 4
  ret i32 %5
}

; Function Attrs: mustprogress nounwind uwtable
define internal noundef i32 @_ZN3gmxL10roundToIntEd(double noundef %0) #1 {
  %2 = alloca double, align 8
  store double %0, ptr %2, align 8
  %3 = load double, ptr %2, align 8
  %4 = call double @llvm.rint.f64(double %3)
  %5 = fptosi double %4 to i32
  ret i32 %5
}

; Function Attrs: mustprogress uwtable
define internal noundef double @_ZN3gmx12_GLOBAL__N_120getDeviationPeriodicEddd(double noundef %0, double noundef %1, double noundef %2) #0 {
  %4 = alloca double, align 8
  %5 = alloca double, align 8
  %6 = alloca double, align 8
  %7 = alloca double, align 8
  store double %0, ptr %4, align 8
  store double %1, ptr %5, align 8
  store double %2, ptr %6, align 8
  %8 = load double, ptr %4, align 8
  %9 = load double, ptr %5, align 8
  %10 = fsub double %8, %9
  store double %10, ptr %7, align 8
  %11 = load double, ptr %6, align 8
  %12 = fcmp ogt double %11, 0.000000e+00
  br i1 %12, label %13, label %17

13:                                               ; preds = %3
  %14 = load double, ptr %7, align 8
  %15 = load double, ptr %6, align 8
  %16 = call noundef double @_ZN3gmx12_GLOBAL__N_129centerPeriodicValueAroundZeroEdd(double noundef %14, double noundef %15)
  store double %16, ptr %7, align 8
  br label %17

17:                                               ; preds = %13, %3
  %18 = load double, ptr %7, align 8
  ret double %18
}

; Function Attrs: mustprogress nounwind uwtable
define linkonce_odr noundef double @_ZNK3gmx8GridAxis6periodEv(ptr noundef nonnull align 8 dereferenceable(41) %0) #1 comdat align 2 {
  %2 = alloca ptr, align 8
  store ptr %0, ptr %2, align 8
  %3 = load ptr, ptr %2, align 8
  %4 = getelementptr inbounds %"class.gmx::GridAxis", ptr %3, i32 0, i32 2
  %5 = load double, ptr %4, align 8
  ret double %5
}

; Function Attrs: mustprogress nounwind uwtable
define linkonce_odr noundef double @_ZNK3gmx8GridAxis7spacingEv(ptr noundef nonnull align 8 dereferenceable(41) %0) #1 comdat align 2 {
  %2 = alloca ptr, align 8
  store ptr %0, ptr %2, align 8
  %3 = load ptr, ptr %2, align 8
  %4 = getelementptr inbounds %"class.gmx::GridAxis", ptr %3, i32 0, i32 3
  %5 = load double, ptr %4, align 8
  ret double %5
}

; Function Attrs: mustprogress uwtable
define internal void @"_ZZNK3gmx8GridAxis12nearestIndexEdENK3$_0clEv"(ptr noundef nonnull align 1 dereferenceable(1) %0) #0 align 2 {
  %2 = alloca ptr, align 8
  store ptr %0, ptr %2, align 8
  call void @_ZN3gmx8internal13assertHandlerEPKcS2_S2_S2_i(ptr noundef @.str.3, ptr noundef @.str.4, ptr noundef @"__PRETTY_FUNCTION__._ZZNK3gmx8GridAxis12nearestIndexEdENK3$_0clEv", ptr noundef @.str.2, i32 noundef 618) #13
  unreachable
}

; Function Attrs: mustprogress nounwind uwtable
define linkonce_odr noundef zeroext i1 @_ZNK3gmx8GridAxis10isPeriodicEv(ptr noundef nonnull align 8 dereferenceable(41) %0) #1 comdat align 2 {
  %2 = alloca ptr, align 8
  store ptr %0, ptr %2, align 8
  %3 = load ptr, ptr %2, align 8
  %4 = getelementptr inbounds %"class.gmx::GridAxis", ptr %3, i32 0, i32 2
  %5 = load double, ptr %4, align 8
  %6 = fcmp ogt double %5, 0.000000e+00
  ret i1 %6
}

; Function Attrs: mustprogress uwtable
define internal noundef i32 @_ZN3gmxL22pointDistanceAlongAxisERKNS_8GridAxisEdd(ptr noundef nonnull align 8 dereferenceable(41) %0, double noundef %1, double noundef %2) #0 {
  %4 = alloca ptr, align 8
  %5 = alloca double, align 8
  %6 = alloca double, align 8
  %7 = alloca i32, align 4
  %8 = alloca double, align 8
  %9 = alloca double, align 8
  store ptr %0, ptr %4, align 8
  store double %1, ptr %5, align 8
  store double %2, ptr %6, align 8
  store i32 0, ptr %7, align 4
  %10 = load ptr, ptr %4, align 8
  %11 = call noundef double @_ZNK3gmx8GridAxis7spacingEv(ptr noundef nonnull align 8 dereferenceable(41) %10)
  %12 = fcmp ogt double %11, 0.000000e+00
  br i1 %12, label %13, label %29

13:                                               ; preds = %3
  %14 = load ptr, ptr %4, align 8
  %15 = call noundef double @_ZNK3gmx8GridAxis6periodEv(ptr noundef nonnull align 8 dereferenceable(41) %14)
  store double %15, ptr %8, align 8
  %16 = load double, ptr %5, align 8
  %17 = load double, ptr %6, align 8
  %18 = load double, ptr %8, align 8
  %19 = call noundef double @_ZN3gmx12_GLOBAL__N_120getDeviationPeriodicEddd(double noundef %16, double noundef %17, double noundef %18)
  store double %19, ptr %9, align 8
  %20 = load double, ptr %9, align 8
  %21 = load ptr, ptr %4, align 8
  %22 = call noundef double @_ZNK3gmx8GridAxis7spacingEv(ptr noundef nonnull align 8 dereferenceable(41) %21)
  %23 = fdiv double %20, %22
  %24 = call noundef i32 @_ZN3gmxL10roundToIntEd(double noundef %23)
  store i32 %24, ptr %7, align 4
  %25 = load i32, ptr %7, align 4
  %26 = load ptr, ptr %4, align 8
  %27 = call noundef i32 @_ZNK3gmx8GridAxis17numPointsInPeriodEv(ptr noundef nonnull align 8 dereferenceable(41) %26)
  %28 = call noundef i32 @_ZN3gmx12_GLOBAL__N_117indexWithinPeriodEii(i32 noundef %25, i32 noundef %27)
  store i32 %28, ptr %7, align 4
  br label %29

29:                                               ; preds = %13, %3
  %30 = load i32, ptr %7, align 4
  ret i32 %30
}

; Function Attrs: mustprogress uwtable
define noundef i32 @_ZNK3gmx8GridAxis12nearestIndexEd(ptr noundef nonnull align 8 dereferenceable(41) %0, double noundef %1) #0 align 2 {
  %3 = alloca ptr, align 8
  %4 = alloca double, align 8
  %5 = alloca i32, align 4
  %6 = alloca %class.anon.12, align 1
  %7 = alloca i32, align 4
  %8 = alloca i32, align 4
  store ptr %0, ptr %3, align 8
  store double %1, ptr %4, align 8
  %9 = load ptr, ptr %3, align 8
  %10 = load double, ptr %4, align 8
  %11 = getelementptr inbounds %"class.gmx::GridAxis", ptr %9, i32 0, i32 0
  %12 = load double, ptr %11, align 8
  %13 = call noundef i32 @_ZN3gmxL22pointDistanceAlongAxisERKNS_8GridAxisEdd(ptr noundef nonnull align 8 dereferenceable(41) %9, double noundef %10, double noundef %12)
  store i32 %13, ptr %5, align 4
  %14 = load i32, ptr %5, align 4
  %15 = icmp slt i32 %14, 0
  br i1 %15, label %21, label %16

16:                                               ; preds = %2
  %17 = load i32, ptr %5, align 4
  %18 = getelementptr inbounds %"class.gmx::GridAxis", ptr %9, i32 0, i32 4
  %19 = load i32, ptr %18, align 8
  %20 = icmp sge i32 %17, %19
  br i1 %20, label %21, label %64

21:                                               ; preds = %16, %2
  %22 = call noundef zeroext i1 @_ZNK3gmx8GridAxis10isPeriodicEv(ptr noundef nonnull align 8 dereferenceable(41) %9)
  br i1 %22, label %23, label %53

23:                                               ; preds = %21
  %24 = load i32, ptr %5, align 4
  %25 = icmp sge i32 %24, 0
  br i1 %25, label %26, label %32

26:                                               ; preds = %23
  %27 = load i32, ptr %5, align 4
  %28 = getelementptr inbounds %"class.gmx::GridAxis", ptr %9, i32 0, i32 5
  %29 = load i32, ptr %28, align 4
  %30 = icmp slt i32 %27, %29
  br i1 %30, label %31, label %32

31:                                               ; preds = %26
  br label %33

32:                                               ; preds = %26, %23
  call void @"_ZZNK3gmx8GridAxis12nearestIndexEdENK3$_0clEv"(ptr noundef nonnull align 1 dereferenceable(1) %6)
  br label %33

33:                                               ; preds = %32, %31
  %34 = load i32, ptr %5, align 4
  %35 = getelementptr inbounds %"class.gmx::GridAxis", ptr %9, i32 0, i32 4
  %36 = load i32, ptr %35, align 8
  %37 = sub nsw i32 %36, 1
  %38 = sub nsw i32 %34, %37
  store i32 %38, ptr %7, align 4
  %39 = getelementptr inbounds %"class.gmx::GridAxis", ptr %9, i32 0, i32 5
  %40 = load i32, ptr %39, align 4
  %41 = load i32, ptr %5, align 4
  %42 = sub nsw i32 %40, %41
  store i32 %42, ptr %8, align 4
  %43 = load i32, ptr %8, align 4
  %44 = load i32, ptr %7, align 4
  %45 = icmp slt i32 %43, %44
  br i1 %45, label %46, label %47

46:                                               ; preds = %33
  br label %51

47:                                               ; preds = %33
  %48 = getelementptr inbounds %"class.gmx::GridAxis", ptr %9, i32 0, i32 4
  %49 = load i32, ptr %48, align 8
  %50 = sub nsw i32 %49, 1
  br label %51

51:                                               ; preds = %47, %46
  %52 = phi i32 [ 0, %46 ], [ %50, %47 ]
  store i32 %52, ptr %5, align 4
  br label %63

53:                                               ; preds = %21
  %54 = load i32, ptr %5, align 4
  %55 = icmp slt i32 %54, 0
  br i1 %55, label %56, label %57

56:                                               ; preds = %53
  br label %61

57:                                               ; preds = %53
  %58 = getelementptr inbounds %"class.gmx::GridAxis", ptr %9, i32 0, i32 4
  %59 = load i32, ptr %58, align 8
  %60 = sub nsw i32 %59, 1
  br label %61

61:                                               ; preds = %57, %56
  %62 = phi i32 [ 0, %56 ], [ %60, %57 ]
  store i32 %62, ptr %5, align 4
  br label %63

63:                                               ; preds = %61, %51
  br label %64

64:                                               ; preds = %63, %16
  %65 = load i32, ptr %5, align 4
  ret i32 %65
}