; Function Attrs: mustprogress uwtable
define noundef i32 @_ZNK3gmx8GridAxis12nearestIndexEd(ptr nocapture noundef nonnull readonly align 8 dereferenceable(41) %0, double noundef %1) local_unnamed_addr #6 align 2 {
  %3 = getelementptr inbounds i8, ptr %0, i64 24
  %4 = load double, ptr %3, align 8
  %5 = fcmp ogt double %4, 0.000000e+00
  br i1 %5, label %6, label %_ZN3gmxL22pointDistanceAlongAxisERKNS_8GridAxisEdd.exit

6:                                                ; preds = %2
  %7 = load double, ptr %0, align 8
  %8 = getelementptr inbounds i8, ptr %0, i64 16
  %9 = load double, ptr %8, align 8
  %10 = fsub double %1, %7
  %11 = fcmp ogt double %9, 0.000000e+00
  br i1 %11, label %12, label %_ZN3gmx12_GLOBAL__N_120getDeviationPeriodicEddd.exit.i

12:                                               ; preds = %6
  %13 = fmul double %9, 5.000000e-01
  %14 = fcmp ugt double %13, %10
  br i1 %14, label %17, label %15

15:                                               ; preds = %12
  %16 = fsub double %10, %9
  br label %_ZN3gmx12_GLOBAL__N_120getDeviationPeriodicEddd.exit.i

17:                                               ; preds = %12
  %18 = fneg double %13
  %19 = fcmp olt double %10, %18
  br i1 %19, label %20, label %_ZN3gmx12_GLOBAL__N_120getDeviationPeriodicEddd.exit.i

20:                                               ; preds = %17
  %21 = fadd double %10, %9
  br label %_ZN3gmx12_GLOBAL__N_120getDeviationPeriodicEddd.exit.i

_ZN3gmx12_GLOBAL__N_120getDeviationPeriodicEddd.exit.i: ; preds = %20, %17, %15, %6
  %.0.i.i = phi double [ %10, %6 ], [ %16, %15 ], [ %21, %20 ], [ %10, %17 ]
  %22 = fdiv double %.0.i.i, %4
  %23 = tail call double @llvm.rint.f64(double %22)
  %24 = fptosi double %23 to i32
  %25 = getelementptr inbounds i8, ptr %0, i64 36
  %26 = load i32, ptr %25, align 4
  %27 = icmp eq i32 %26, 0
  br i1 %27, label %_ZN3gmxL22pointDistanceAlongAxisERKNS_8GridAxisEdd.exit, label %28

28:                                               ; preds = %_ZN3gmx12_GLOBAL__N_120getDeviationPeriodicEddd.exit.i
  %.not.i.i = icmp sgt i32 %26, %24
  br i1 %.not.i.i, label %31, label %29

29:                                               ; preds = %28
  %30 = sub nsw i32 %24, %26
  br label %_ZN3gmxL22pointDistanceAlongAxisERKNS_8GridAxisEdd.exit

31:                                               ; preds = %28
  %32 = icmp slt i32 %24, 0
  %33 = select i1 %32, i32 %26, i32 0
  %spec.select.i.i = add nsw i32 %33, %24
  br label %_ZN3gmxL22pointDistanceAlongAxisERKNS_8GridAxisEdd.exit

_ZN3gmxL22pointDistanceAlongAxisERKNS_8GridAxisEdd.exit: ; preds = %2, %_ZN3gmx12_GLOBAL__N_120getDeviationPeriodicEddd.exit.i, %29, %31
  %.0.i = phi i32 [ 0, %2 ], [ %30, %29 ], [ %24, %_ZN3gmx12_GLOBAL__N_120getDeviationPeriodicEddd.exit.i ], [ %spec.select.i.i, %31 ]
  %34 = icmp sgt i32 %.0.i, -1
  %35 = getelementptr inbounds i8, ptr %0, i64 32
  %36 = load i32, ptr %35, align 8
  %.not = icmp slt i32 %.0.i, %36
  %or.cond = select i1 %34, i1 %.not, i1 false
  br i1 %or.cond, label %54, label %37

37:                                               ; preds = %_ZN3gmxL22pointDistanceAlongAxisERKNS_8GridAxisEdd.exit
  %38 = getelementptr inbounds i8, ptr %0, i64 16
  %39 = load double, ptr %38, align 8
  %40 = fcmp ogt double %39, 0.000000e+00
  br i1 %40, label %41, label %51

41:                                               ; preds = %37
  %42 = getelementptr inbounds i8, ptr %0, i64 36
  %43 = load i32, ptr %42, align 4
  %44 = icmp slt i32 %.0.i, %43
  %or.cond16 = select i1 %34, i1 %44, i1 false
  br i1 %or.cond16, label %46, label %45

45:                                               ; preds = %41
  tail call void @_ZN3gmx8internal13assertHandlerEPKcS2_S2_S2_i(ptr noundef nonnull @.str.3, ptr noundef nonnull @.str.4, ptr noundef nonnull @"__PRETTY_FUNCTION__._ZZNK3gmx8GridAxis12nearestIndexEdENK3$_0clEv", ptr noundef nonnull @.str.2, i32 noundef 618) #22
  unreachable

46:                                               ; preds = %41
  %47 = add nsw i32 %36, -1
  %48 = sub nsw i32 %.0.i, %47
  %49 = sub nsw i32 %43, %.0.i
  %50 = icmp slt i32 %49, %48
  %spec.select = select i1 %50, i32 0, i32 %47
  br label %54

51:                                               ; preds = %37
  %52 = add nsw i32 %36, -1
  %53 = select i1 %34, i32 %52, i32 0
  br label %54

54:                                               ; preds = %_ZN3gmxL22pointDistanceAlongAxisERKNS_8GridAxisEdd.exit, %46, %51
  %.0 = phi i32 [ %spec.select, %46 ], [ %53, %51 ], [ %.0.i, %_ZN3gmxL22pointDistanceAlongAxisERKNS_8GridAxisEdd.exit ]
  ret i32 %.0
}